target datalayout = "e-m:e-p270:32:32-p271:32:32-p272:64:64-i64:64-i128:128-f80:128-n8:16:32:64-S128"
target triple = "x86_64-pc-linux-gnu"

%struct.AVChannelLayout = type { i32, i32, %union.anon, ptr }
%union.anon = type { i64 }
%struct.AVFormatContext = type { ptr, ptr, ptr, ptr, ptr, i32, i32, ptr, i32, ptr, i32, ptr, ptr, i64, i64, i64, i32, i32, i32, i64, i64, ptr, i32, i32, ptr, i32, i32, i32, i32, ptr, i64, i32, i32, %struct.AVIOInterruptCB, i32, i32, i32, i32, i64, i32, i32, i32, i32, i32, i32, i32, i32, i32, i32, i32, i32, i64, i32, i32, i32, i32, i32, ptr, ptr, ptr, ptr, i32, ptr, ptr, ptr, ptr, i32, ptr, ptr, i64, ptr, ptr, ptr, i64 }
%struct.AVIOInterruptCB = type { ptr, ptr }
%struct.CdataDemuxContext = type { i32, i32 }
%struct.AVStream = type { ptr, i32, i32, ptr, ptr, %struct.AVRational, i64, i64, i64, i32, i32, %struct.AVRational, ptr, %struct.AVRational, %struct.AVPacket, i32, %struct.AVRational, i32 }
%struct.AVPacket = type { ptr, i64, i64, ptr, i32, i32, i32, ptr, i32, i64, i64, ptr, ptr, %struct.AVRational }
%struct.AVRational = type { i32, i32 }
%struct.AVCodecParameters = type { i32, i32, i32, ptr, i32, ptr, i32, i32, i64, i32, i32, i32, i32, i32, i32, %struct.AVRational, %struct.AVRational, i32, i32, i32, i32, i32, i32, i32, %struct.AVChannelLayout, i32, i32, i32, i32, i32, i32 }

@.str.3 = private unnamed_addr constant [23 x i8] c"unknown header 0x%04x\0A\00", align 1

; Function Attrs: nounwind uwtable
define internal i32 @cdata_read_header(ptr noundef %0) #0 {
  %2 = alloca i32, align 4
  %3 = alloca ptr, align 8
  %4 = alloca ptr, align 8
  %5 = alloca ptr, align 8
  %6 = alloca i32, align 4
  %7 = alloca i32, align 4
  %8 = alloca ptr, align 8
  %9 = alloca %struct.AVChannelLayout, align 8
  %10 = alloca %struct.AVChannelLayout, align 8
  %11 = alloca %struct.AVChannelLayout, align 8
  %12 = alloca %struct.AVChannelLayout, align 8
  %13 = alloca %struct.AVChannelLayout, align 8
  %14 = alloca i32, align 4
  store ptr %0, ptr %3, align 8, !tbaa !15
  call void @llvm.lifetime.start.p0(i64 8, ptr %4) #5
  %15 = load ptr, ptr %3, align 8, !tbaa !15
  %16 = getelementptr inbounds nuw %struct.AVFormatContext, ptr %15, i32 0, i32 3
  %17 = load ptr, ptr %16, align 8, !tbaa !17
  store ptr %17, ptr %4, align 8, !tbaa !32
  call void @llvm.lifetime.start.p0(i64 8, ptr %5) #5
  %18 = load ptr, ptr %3, align 8, !tbaa !15
  %19 = getelementptr inbounds nuw %struct.AVFormatContext, ptr %18, i32 0, i32 4
  %20 = load ptr, ptr %19, align 8, !tbaa !34
  store ptr %20, ptr %5, align 8, !tbaa !35
  call void @llvm.lifetime.start.p0(i64 4, ptr %6) #5
  call void @llvm.lifetime.start.p0(i64 4, ptr %7) #5
  call void @llvm.lifetime.start.p0(i64 8, ptr %8) #5
  call void @llvm.lifetime.start.p0(i64 24, ptr %9) #5
  %21 = load ptr, ptr %5, align 8, !tbaa !35
  %22 = call i32 @avio_rb16(ptr noundef %21)
  store i32 %22, ptr %7, align 4, !tbaa !36
  %23 = load i32, ptr %7, align 4, !tbaa !36
  switch i32 %23, label %44 [
    i32 1024, label %24
    i32 1028, label %29
    i32 1036, label %34
    i32 1044, label %39
  ]

24:                                               ; preds = %1
  %25 = getelementptr inbounds nuw %struct.AVChannelLayout, ptr %10, i32 0, i32 0
  store i32 0, ptr %25, align 8, !tbaa !37
  %26 = getelementptr inbounds nuw %struct.AVChannelLayout, ptr %10, i32 0, i32 1
  store i32 1, ptr %26, align 4, !tbaa !39
  %27 = getelementptr inbounds nuw %struct.AVChannelLayout, ptr %10, i32 0, i32 2
  call void @llvm.memset.p0.i64(ptr align 8 %27, i8 0, i64 8, i1 false)
  %28 = getelementptr inbounds nuw %struct.AVChannelLayout, ptr %10, i32 0, i32 3
  store ptr null, ptr %28, align 8, !tbaa !40
  call void @llvm.memcpy.p0.p0.i64(ptr align 8 %9, ptr align 8 %10, i64 24, i1 false), !tbaa.struct !41
  br label %47

29:                                               ; preds = %1
  %30 = getelementptr inbounds nuw %struct.AVChannelLayout, ptr %11, i32 0, i32 0
  store i32 0, ptr %30, align 8, !tbaa !37
  %31 = getelementptr inbounds nuw %struct.AVChannelLayout, ptr %11, i32 0, i32 1
  store i32 2, ptr %31, align 4, !tbaa !39
  %32 = getelementptr inbounds nuw %struct.AVChannelLayout, ptr %11, i32 0, i32 2
  call void @llvm.memset.p0.i64(ptr align 8 %32, i8 0, i64 8, i1 false)
  %33 = getelementptr inbounds nuw %struct.AVChannelLayout, ptr %11, i32 0, i32 3
  store ptr null, ptr %33, align 8, !tbaa !40
  call void @llvm.memcpy.p0.p0.i64(ptr align 8 %9, ptr align 8 %11, i64 24, i1 false), !tbaa.struct !41
  br label %47

34:                                               ; preds = %1
  %35 = getelementptr inbounds nuw %struct.AVChannelLayout, ptr %12, i32 0, i32 0
  store i32 1, ptr %35, align 8, !tbaa !37
  %36 = getelementptr inbounds nuw %struct.AVChannelLayout, ptr %12, i32 0, i32 1
  store i32 4, ptr %36, align 4, !tbaa !39
  %37 = getelementptr inbounds nuw %struct.AVChannelLayout, ptr %12, i32 0, i32 2
  store i64 51, ptr %37, align 8, !tbaa !14
  %38 = getelementptr inbounds nuw %struct.AVChannelLayout, ptr %12, i32 0, i32 3
  store ptr null, ptr %38, align 8, !tbaa !40
  call void @llvm.memcpy.p0.p0.i64(ptr align 8 %9, ptr align 8 %12, i64 24, i1 false), !tbaa.struct !41
  br label %47

39:                                               ; preds = %1
  %40 = getelementptr inbounds nuw %struct.AVChannelLayout, ptr %13, i32 0, i32 0
  store i32 1, ptr %40, align 8, !tbaa !37
  %41 = getelementptr inbounds nuw %struct.AVChannelLayout, ptr %13, i32 0, i32 1
  store i32 6, ptr %41, align 4, !tbaa !39
  %42 = getelementptr inbounds nuw %struct.AVChannelLayout, ptr %13, i32 0, i32 2
  store i64 63, ptr %42, align 8, !tbaa !14
  %43 = getelementptr inbounds nuw %struct.AVChannelLayout, ptr %13, i32 0, i32 3
  store ptr null, ptr %43, align 8, !tbaa !40
  call void @llvm.memcpy.p0.p0.i64(ptr align 8 %9, ptr align 8 %13, i64 24, i1 false), !tbaa.struct !41
  br label %47

44:                                               ; preds = %1
  %45 = load ptr, ptr %3, align 8, !tbaa !15
  %46 = load i32, ptr %7, align 4, !tbaa !36
  call void (ptr, i32, ptr, ...) @av_log(ptr noundef %45, i32 noundef 32, ptr noundef @.str.3, i32 noundef %46)
  store i32 -1, ptr %2, align 4
  store i32 1, ptr %14, align 4
  br label %93

47:                                               ; preds = %39, %34, %29, %24
  %48 = getelementptr inbounds nuw %struct.AVChannelLayout, ptr %9, i32 0, i32 1
  %49 = load i32, ptr %48, align 4, !tbaa !39
  %50 = load ptr, ptr %4, align 8, !tbaa !32
  %51 = getelementptr inbounds nuw %struct.CdataDemuxContext, ptr %50, i32 0, i32 0
  store i32 %49, ptr %51, align 4, !tbaa !43
  %52 = load ptr, ptr %5, align 8, !tbaa !35
  %53 = call i32 @avio_rb16(ptr noundef %52)
  store i32 %53, ptr %6, align 4, !tbaa !36
  %54 = load ptr, ptr %5, align 8, !tbaa !35
  %55 = load ptr, ptr %5, align 8, !tbaa !35
  %56 = call i32 @avio_r8(ptr noundef %55)
  %57 = and i32 %56, 32
  %58 = icmp ne i32 %57, 0
  %59 = select i1 %58, i32 15, i32 11
  %60 = sext i32 %59 to i64
  %61 = call i64 @avio_skip(ptr noundef %54, i64 noundef %60)
  %62 = load ptr, ptr %3, align 8, !tbaa !15
  %63 = call ptr @avformat_new_stream(ptr noundef %62, ptr noundef null)
  store ptr %63, ptr %8, align 8, !tbaa !45
  %64 = load ptr, ptr %8, align 8, !tbaa !45
  %65 = icmp ne ptr %64, null
  br i1 %65, label %67, label %66

66:                                               ; preds = %47
  store i32 -12, ptr %2, align 4
  store i32 1, ptr %14, align 4
  br label %93

67:                                               ; preds = %47
  %68 = load ptr, ptr %8, align 8, !tbaa !45
  %69 = getelementptr inbounds nuw %struct.AVStream, ptr %68, i32 0, i32 3
  %70 = load ptr, ptr %69, align 8, !tbaa !47
  %71 = getelementptr inbounds nuw %struct.AVCodecParameters, ptr %70, i32 0, i32 0
  store i32 1, ptr %71, align 8, !tbaa !54
  %72 = load ptr, ptr %8, align 8, !tbaa !45
  %73 = getelementptr inbounds nuw %struct.AVStream, ptr %72, i32 0, i32 3
  %74 = load ptr, ptr %73, align 8, !tbaa !47
  %75 = getelementptr inbounds nuw %struct.AVCodecParameters, ptr %74, i32 0, i32 2
  store i32 0, ptr %75, align 8, !tbaa !56
  %76 = load ptr, ptr %8, align 8, !tbaa !45
  %77 = getelementptr inbounds nuw %struct.AVStream, ptr %76, i32 0, i32 3
  %78 = load ptr, ptr %77, align 8, !tbaa !47
  %79 = getelementptr inbounds nuw %struct.AVCodecParameters, ptr %78, i32 0, i32 1
  store i32 69657, ptr %79, align 4, !tbaa !57
  %80 = load ptr, ptr %8, align 8, !tbaa !45
  %81 = getelementptr inbounds nuw %struct.AVStream, ptr %80, i32 0, i32 3
  %82 = load ptr, ptr %81, align 8, !tbaa !47
  %83 = getelementptr inbounds nuw %struct.AVCodecParameters, ptr %82, i32 0, i32 24
  call void @llvm.memcpy.p0.p0.i64(ptr align 8 %83, ptr align 8 %9, i64 24, i1 false), !tbaa.struct !41
  %84 = load i32, ptr %6, align 4, !tbaa !36
  %85 = load ptr, ptr %8, align 8, !tbaa !45
  %86 = getelementptr inbounds nuw %struct.AVStream, ptr %85, i32 0, i32 3
  %87 = load ptr, ptr %86, align 8, !tbaa !47
  %88 = getelementptr inbounds nuw %struct.AVCodecParameters, ptr %87, i32 0, i32 25
  store i32 %84, ptr %88, align 8, !tbaa !58
  %89 = load ptr, ptr %8, align 8, !tbaa !45
  %90 = load i32, ptr %6, align 4, !tbaa !36
  call void @avpriv_set_pts_info(ptr noundef %89, i32 noundef 64, i32 noundef 1, i32 noundef %90)
  %91 = load ptr, ptr %4, align 8, !tbaa !32
  %92 = getelementptr inbounds nuw %struct.CdataDemuxContext, ptr %91, i32 0, i32 1
  store i32 0, ptr %92, align 4, !tbaa !59
  store i32 0, ptr %2, align 4
  store i32 1, ptr %14, align 4
  br label %93

93:                                               ; preds = %67, %66, %44
  call void @llvm.lifetime.end.p0(i64 24, ptr %9) #5
  call void @llvm.lifetime.end.p0(i64 8, ptr %8) #5
  call void @llvm.lifetime.end.p0(i64 4, ptr %7) #5
  call void @llvm.lifetime.end.p0(i64 4, ptr %6) #5
  call void @llvm.lifetime.end.p0(i64 8, ptr %5) #5
  call void @llvm.lifetime.end.p0(i64 8, ptr %4) #5
  %94 = load i32, ptr %2, align 4
  ret i32 %94
}