; Function Attrs: nounwind uwtable
define internal range(i32 -12, 1) i32 @cdata_read_header(ptr noundef %0) #1 {
  %2 = getelementptr inbounds nuw i8, ptr %0, i64 24
  %3 = load ptr, ptr %2, align 8, !tbaa !12
  %4 = getelementptr inbounds nuw i8, ptr %0, i64 32
  %5 = load ptr, ptr %4, align 8, !tbaa !27
  %6 = tail call i32 @avio_rb16(ptr noundef %5) #4
  %7 = add i32 %6, -1024
  %8 = tail call i32 @llvm.fshl.i32(i32 %7, i32 %7, i32 30)
  %9 = icmp ult i32 %8, 6
  %switch.maskindex = trunc i32 %8 to i8
  %switch.shifted = lshr i8 43, %switch.maskindex
  %switch.lobit = trunc i8 %switch.shifted to i1
  %or.cond = select i1 %9, i1 %switch.lobit, i1 false
  br i1 %or.cond, label %switch.lookup, label %10

10:                                               ; preds = %1
  tail call void (ptr, i32, ptr, ...) @av_log(ptr noundef nonnull %0, i32 noundef 32, ptr noundef nonnull @.str.3, i32 noundef %6) #4
  br label %29

switch.lookup:                                    ; preds = %1
  %11 = zext nneg i32 %8 to i64
  %switch.gep = getelementptr inbounds nuw [6 x i32], ptr @switch.table.cdata_read_header, i64 0, i64 %11
  %switch.load = load i32, ptr %switch.gep, align 4
  %12 = zext nneg i32 %8 to i64
  %switch.gep36 = getelementptr inbounds nuw [6 x i32], ptr @switch.table.cdata_read_header.1, i64 0, i64 %12
  %switch.load37 = load i32, ptr %switch.gep36, align 4
  %13 = zext nneg i32 %8 to i64
  %switch.gep38 = getelementptr inbounds nuw [6 x i64], ptr @switch.table.cdata_read_header.2, i64 0, i64 %13
  %switch.load39 = load i64, ptr %switch.gep38, align 8
  store i32 %switch.load37, ptr %3, align 4, !tbaa !28
  %14 = tail call i32 @avio_rb16(ptr noundef %5) #4
  %15 = tail call i32 @avio_r8(ptr noundef %5) #4
  %16 = and i32 %15, 32
  %.not = icmp eq i32 %16, 0
  %17 = select i1 %.not, i64 11, i64 15
  %18 = tail call i64 @avio_skip(ptr noundef %5, i64 noundef %17) #4
  %19 = tail call ptr @avformat_new_stream(ptr noundef nonnull %0, ptr noundef null) #4
  %.not35 = icmp eq ptr %19, null
  br i1 %.not35, label %29, label %20

20:                                               ; preds = %switch.lookup
  %21 = getelementptr inbounds nuw i8, ptr %19, i64 16
  %22 = load ptr, ptr %21, align 8, !tbaa !30
  store i32 1, ptr %22, align 8, !tbaa !37
  %23 = getelementptr inbounds nuw i8, ptr %22, i64 8
  store i32 0, ptr %23, align 8, !tbaa !40
  %24 = getelementptr inbounds nuw i8, ptr %22, i64 4
  store i32 69657, ptr %24, align 4, !tbaa !41
  %25 = getelementptr inbounds nuw i8, ptr %22, i64 128
  store i32 %switch.load, ptr %25, align 8, !tbaa !42
  %.sroa.7.0..sroa_idx = getelementptr inbounds nuw i8, ptr %22, i64 132
  store i32 %switch.load37, ptr %.sroa.7.0..sroa_idx, align 4, !tbaa !42
  %.sroa.12.0..sroa_idx = getelementptr inbounds nuw i8, ptr %22, i64 136
  store i64 %switch.load39, ptr %.sroa.12.0..sroa_idx, align 8, !tbaa !11
  %.sroa.16.0..sroa_idx = getelementptr inbounds nuw i8, ptr %22, i64 144
  store ptr null, ptr %.sroa.16.0..sroa_idx, align 8, !tbaa !43
  %26 = load ptr, ptr %21, align 8, !tbaa !30
  %27 = getelementptr inbounds nuw i8, ptr %26, i64 152
  store i32 %14, ptr %27, align 8, !tbaa !44
  tail call void @avpriv_set_pts_info(ptr noundef nonnull %19, i32 noundef 64, i32 noundef 1, i32 noundef %14) #4
  %28 = getelementptr inbounds nuw i8, ptr %3, i64 4
  store i32 0, ptr %28, align 4, !tbaa !45
  br label %29

29:                                               ; preds = %switch.lookup, %20, %10
  %.0 = phi i32 [ -1, %10 ], [ 0, %20 ], [ -12, %switch.lookup ]
  ret i32 %.0
}